target datalayout = "e-m:e-p270:32:32-p271:32:32-p272:64:64-i64:64-i128:128-f80:128-n8:16:32:64-S128"
target triple = "x86_64-pc-linux-gnu"

%struct.Curl_share = type { i32, i32, i32, ptr, ptr, ptr, %struct.cpool, %struct.Curl_hash, ptr, %struct.PslCache, ptr, ptr }
%struct.cpool = type { %struct.Curl_hash, i64, i64, i64, %struct.curltime, %struct.Curl_llist, ptr, ptr, ptr, ptr, i8 }
%struct.curltime = type { i64, i32 }
%struct.Curl_llist = type { ptr, ptr, ptr, i64 }
%struct.Curl_hash = type { ptr, ptr, ptr, ptr, i64, i64 }
%struct.PslCache = type { ptr, i64, i8 }

@Curl_ccalloc = external global ptr, align 8

; Function Attrs: nounwind uwtable
define ptr @curl_share_init() #0 {
  %1 = alloca ptr, align 8
  call void @llvm.lifetime.start.p0(i64 8, ptr %1) #4
  %2 = load ptr, ptr @Curl_ccalloc, align 8, !tbaa !3
  %3 = call ptr %2(i64 noundef 1, i64 noundef 296)
  store ptr %3, ptr %1, align 8, !tbaa !7
  %4 = load ptr, ptr %1, align 8, !tbaa !7
  %5 = icmp ne ptr %4, null
  br i1 %5, label %6, label %15

6:                                                ; preds = %0
  %7 = load ptr, ptr %1, align 8, !tbaa !7
  %8 = getelementptr inbounds nuw %struct.Curl_share, ptr %7, i32 0, i32 0
  store i32 2115074590, ptr %8, align 8, !tbaa !9
  %9 = load ptr, ptr %1, align 8, !tbaa !7
  %10 = getelementptr inbounds nuw %struct.Curl_share, ptr %9, i32 0, i32 1
  %11 = load i32, ptr %10, align 4, !tbaa !27
  %12 = or i32 %11, 2
  store i32 %12, ptr %10, align 4, !tbaa !27
  %13 = load ptr, ptr %1, align 8, !tbaa !7
  %14 = getelementptr inbounds nuw %struct.Curl_share, ptr %13, i32 0, i32 7
  call void @Curl_init_dnscache(ptr noundef %14, i64 noundef 23)
  br label %15

15:                                               ; preds = %6, %0
  %16 = load ptr, ptr %1, align 8, !tbaa !7
  call void @llvm.lifetime.end.p0(i64 8, ptr %1) #4
  ret ptr %16
}