; Function Attrs: nounwind uwtable
define ptr @curl_share_init() local_unnamed_addr #0 {
  %1 = load ptr, ptr @Curl_ccalloc, align 8, !tbaa !3
  %2 = tail call ptr %1(i64 noundef 1, i64 noundef 296) #4
  %.not = icmp eq ptr %2, null
  br i1 %.not, label %8, label %3

3:                                                ; preds = %0
  store i32 2115074590, ptr %2, align 8, !tbaa !7
  %4 = getelementptr inbounds nuw i8, ptr %2, i64 4
  %5 = load i32, ptr %4, align 4, !tbaa !26
  %6 = or i32 %5, 2
  store i32 %6, ptr %4, align 4, !tbaa !26
  %7 = getelementptr inbounds nuw i8, ptr %2, i64 200
  tail call void @Curl_init_dnscache(ptr noundef nonnull %7, i64 noundef 23) #4
  br label %8

8:                                                ; preds = %3, %0
  ret ptr %2
}